target datalayout = "e-m:e-p270:32:32-p271:32:32-p272:64:64-i64:64-i128:128-f80:128-n8:16:32:64-S128"
target triple = "x86_64-pc-linux-gnu"

%"class.nanogui::Color" = type { %"struct.nanogui::Array" }
%"struct.nanogui::Array" = type { [4 x float] }
%"class.std::__1::basic_string" = type { %"class.std::__1::__compressed_pair" }
%"class.std::__1::__compressed_pair" = type { %"struct.std::__1::__compressed_pair_elem" }
%"struct.std::__1::__compressed_pair_elem" = type { %"struct.std::__1::basic_string<char>::__rep" }
%"struct.std::__1::basic_string<char>::__rep" = type { %union.anon }
%union.anon = type { %"struct.std::__1::basic_string<char>::__long" }
%"struct.std::__1::basic_string<char>::__long" = type { %struct.anon.1, i64, ptr }
%struct.anon.1 = type { i64 }
%"class.tev::UberShader" = type { ptr, %"class.nanogui::ref", %"class.nanogui::ref.0", %"class.nanogui::Color" }
%"class.nanogui::ref" = type { ptr }
%"class.nanogui::ref.0" = type { ptr }
%"struct.std::__1::__default_init_tag" = type { i8 }
%"struct.nanogui::Array.35" = type { [2 x float] }

@_ZTISt13runtime_error = external constant ptr
@.str.14 = private unnamed_addr constant [10 x i8] c"pixelSize\00", align 1
@.str.15 = private unnamed_addr constant [12 x i8] c"checkerSize\00", align 1
@.str.16 = private unnamed_addr constant [8 x i8] c"bgColor\00", align 1
@.str.104 = private unnamed_addr constant [54 x i8] c"Shader::set_uniform(): invalid input array dimension!\00", align 1
@__const._ZN7nanogui6Shader11set_uniformINS_5ArrayIfLm2EEEEEvRKNSt3__112basic_stringIcNS4_11char_traitsIcEENS4_9allocatorIcEEEERKT_.shape = private unnamed_addr constant [3 x i64] [i64 1, i64 1, i64 1], align 16
@__const._ZN7nanogui6Shader11set_uniformINS_5ColorEEEvRKNSt3__112basic_stringIcNS3_11char_traitsIcEENS3_9allocatorIcEEEERKT_.shape = private unnamed_addr constant [3 x i64] [i64 1, i64 1, i64 1], align 16

; Function Attrs: mustprogress nounwind uwtable
define linkonce_odr hidden void @_ZNSt3__116__non_trivial_ifILb1ENS_9allocatorIcEEEC2B8ne190000Ev(ptr noundef nonnull align 1 dereferenceable(1) %0) unnamed_addr #1 comdat align 2 {
  %2 = alloca ptr, align 8
  store ptr %0, ptr %2, align 8
  ret void
}

; Function Attrs: mustprogress nounwind uwtable
define linkonce_odr hidden void @_ZNSt3__19allocatorIcEC2B8ne190000Ev(ptr noundef nonnull align 1 dereferenceable(1) %0) unnamed_addr #1 comdat align 2 {
  %2 = alloca ptr, align 8
  store ptr %0, ptr %2, align 8
  %3 = load ptr, ptr %2, align 8
  call void @_ZNSt3__116__non_trivial_ifILb1ENS_9allocatorIcEEEC2B8ne190000Ev(ptr noundef nonnull align 1 dereferenceable(1) %3) #14
  ret void
}

; Function Attrs: noreturn nounwind uwtable
define linkonce_odr hidden void @__clang_call_terminate(ptr noundef %0) #9 comdat {
  %2 = call ptr @__cxa_begin_catch(ptr %0) #14
  call void @_ZSt9terminatev() #21
  unreachable
}

; Function Attrs: mustprogress nounwind uwtable
define linkonce_odr hidden noundef i64 @_ZNSt3__118__constexpr_strlenB8ne190000EPKc(ptr noundef %0) #1 comdat {
  %2 = alloca ptr, align 8
  store ptr %0, ptr %2, align 8
  %3 = load ptr, ptr %2, align 8
  %4 = call i64 @strlen(ptr noundef %3) #14
  ret i64 %4
}

; Function Attrs: mustprogress nounwind uwtable
define linkonce_odr hidden void @_ZNSt3__122__compressed_pair_elemINS_9allocatorIcEELi1ELb1EEC2B8ne190000ENS_18__default_init_tagE(ptr noundef nonnull align 1 dereferenceable(1) %0) unnamed_addr #1 comdat align 2 {
  %2 = alloca ptr, align 8
  store ptr %0, ptr %2, align 8
  %3 = load ptr, ptr %2, align 8
  call void @_ZNSt3__19allocatorIcEC2B8ne190000Ev(ptr noundef nonnull align 1 dereferenceable(1) %3) #14
  ret void
}

; Function Attrs: mustprogress nounwind uwtable
define linkonce_odr hidden void @_ZNSt3__122__compressed_pair_elemINS_12basic_stringIcNS_11char_traitsIcEENS_9allocatorIcEEE5__repELi0ELb0EEC2B8ne190000ENS_18__default_init_tagE(ptr noundef nonnull align 8 dereferenceable(24) %0) unnamed_addr #1 comdat align 2 {
  %2 = alloca ptr, align 8
  store ptr %0, ptr %2, align 8
  ret void
}

; Function Attrs: mustprogress nounwind uwtable
define linkonce_odr dso_local noundef i32 @_ZN7nanogui8get_typeIfEENS_12VariableTypeEv() #1 comdat {
  ret i32 10
}

; Function Attrs: mustprogress nounwind uwtable
define linkonce_odr hidden noundef i64 @_ZNSt3__111char_traitsIcE6lengthB8ne190000EPKc(ptr noundef %0) #1 comdat align 2 personality ptr @__gxx_personality_v0 {
  %2 = alloca ptr, align 8
  store ptr %0, ptr %2, align 8
  %3 = load ptr, ptr %2, align 8
  %4 = invoke noundef i64 @_ZNSt3__118__constexpr_strlenB8ne190000EPKc(ptr noundef %3)
          to label %5 unwind label %6

5:                                                ; preds = %1
  ret i64 %4

6:                                                ; preds = %1
  %7 = landingpad { ptr, i32 }
          catch ptr null
  %8 = extractvalue { ptr, i32 } %7, 0
  call void @__clang_call_terminate(ptr %8) #21
  unreachable
}

; Function Attrs: mustprogress uwtable
define linkonce_odr dso_local void @_ZNSt3__117__compressed_pairINS_12basic_stringIcNS_11char_traitsIcEENS_9allocatorIcEEE5__repES5_EC2B8ne190000INS_18__default_init_tagESA_EEOT_OT0_(ptr noundef nonnull align 8 dereferenceable(24) %0, ptr noundef nonnull align 1 dereferenceable(1) %1, ptr noundef nonnull align 1 dereferenceable(1) %2) unnamed_addr #4 comdat align 2 {
  %4 = alloca ptr, align 8
  %5 = alloca ptr, align 8
  %6 = alloca ptr, align 8
  store ptr %0, ptr %4, align 8
  store ptr %1, ptr %5, align 8
  store ptr %2, ptr %6, align 8
  %7 = load ptr, ptr %4, align 8
  call void @_ZNSt3__122__compressed_pair_elemINS_12basic_stringIcNS_11char_traitsIcEENS_9allocatorIcEEE5__repELi0ELb0EEC2B8ne190000ENS_18__default_init_tagE(ptr noundef nonnull align 8 dereferenceable(24) %7)
  call void @_ZNSt3__122__compressed_pair_elemINS_9allocatorIcEELi1ELb1EEC2B8ne190000ENS_18__default_init_tagE(ptr noundef nonnull align 1 dereferenceable(1) %7)
  ret void
}

; Function Attrs: mustprogress uwtable
define linkonce_odr dso_local void @_ZN7nanogui6Shader11set_uniformINS_5ColorEEEvRKNSt3__112basic_stringIcNS3_11char_traitsIcEENS3_9allocatorIcEEEERKT_(ptr noundef nonnull align 8 dereferenceable(101) %0, ptr noundef nonnull align 8 dereferenceable(24) %1, ptr noundef nonnull align 4 dereferenceable(16) %2) #4 comdat align 2 personality ptr @__gxx_personality_v0 {
  %4 = alloca ptr, align 8
  %5 = alloca ptr, align 8
  %6 = alloca ptr, align 8
  %7 = alloca [3 x i64], align 16
  %8 = alloca i64, align 8
  %9 = alloca ptr, align 8
  %10 = alloca i32, align 4
  %11 = alloca ptr, align 8
  %12 = alloca i32, align 4
  store ptr %0, ptr %4, align 8
  store ptr %1, ptr %5, align 8
  store ptr %2, ptr %6, align 8
  %13 = load ptr, ptr %4, align 8
  call void @llvm.memcpy.p0.p0.i64(ptr align 16 %7, ptr align 16 @__const._ZN7nanogui6Shader11set_uniformINS_5ColorEEEvRKNSt3__112basic_stringIcNS3_11char_traitsIcEENS3_9allocatorIcEEEERKT_.shape, i64 24, i1 false)
  store i64 -1, ptr %8, align 8
  store i32 0, ptr %10, align 4
  %14 = load ptr, ptr %6, align 8
  %15 = getelementptr inbounds %"struct.nanogui::Array", ptr %14, i32 0, i32 0
  %16 = getelementptr inbounds [4 x float], ptr %15, i64 0, i64 0
  store ptr %16, ptr %9, align 8
  store i64 1, ptr %8, align 8
  %17 = getelementptr inbounds [3 x i64], ptr %7, i64 0, i64 0
  store i64 4, ptr %17, align 16
  %18 = call noundef i32 @_ZN7nanogui8get_typeIfEENS_12VariableTypeEv()
  store i32 %18, ptr %10, align 4
  %19 = load i64, ptr %8, align 8
  %20 = icmp eq i64 %19, -1
  br i1 %20, label %21, label %28

21:                                               ; preds = %3
  %22 = call ptr @__cxa_allocate_exception(i64 16) #14
  invoke void @_ZNSt13runtime_errorC1EPKc(ptr noundef nonnull align 8 dereferenceable(16) %22, ptr noundef @.str.104)
          to label %23 unwind label %24

23:                                               ; preds = %21
  call void @__cxa_throw(ptr %22, ptr @_ZTISt13runtime_error, ptr @_ZNSt13runtime_errorD1Ev) #22
  unreachable

24:                                               ; preds = %21
  %25 = landingpad { ptr, i32 }
          cleanup
  %26 = extractvalue { ptr, i32 } %25, 0
  store ptr %26, ptr %11, align 8
  %27 = extractvalue { ptr, i32 } %25, 1
  store i32 %27, ptr %12, align 4
  call void @__cxa_free_exception(ptr %22) #14
  br label %34

28:                                               ; preds = %3
  %29 = load ptr, ptr %5, align 8
  %30 = load i32, ptr %10, align 4
  %31 = load i64, ptr %8, align 8
  %32 = getelementptr inbounds [3 x i64], ptr %7, i64 0, i64 0
  %33 = load ptr, ptr %9, align 8
  call void @_ZN7nanogui6Shader10set_bufferERKNSt3__112basic_stringIcNS1_11char_traitsIcEENS1_9allocatorIcEEEENS_12VariableTypeEmPKmPKv(ptr noundef nonnull align 8 dereferenceable(101) %13, ptr noundef nonnull align 8 dereferenceable(24) %29, i32 noundef %30, i64 noundef %31, ptr noundef %32, ptr noundef %33)
  ret void

34:                                               ; preds = %24
  %35 = load ptr, ptr %11, align 8
  %36 = load i32, ptr %12, align 4
  %37 = insertvalue { ptr, i32 } poison, ptr %35, 0
  %38 = insertvalue { ptr, i32 } %37, i32 %36, 1
  resume { ptr, i32 } %38
}

; Function Attrs: mustprogress uwtable
define linkonce_odr dso_local void @_ZN7nanogui6Shader11set_uniformINS_5ArrayIfLm2EEEEEvRKNSt3__112basic_stringIcNS4_11char_traitsIcEENS4_9allocatorIcEEEERKT_(ptr noundef nonnull align 8 dereferenceable(101) %0, ptr noundef nonnull align 8 dereferenceable(24) %1, ptr noundef nonnull align 4 dereferenceable(8) %2) #4 comdat align 2 personality ptr @__gxx_personality_v0 {
  %4 = alloca ptr, align 8
  %5 = alloca ptr, align 8
  %6 = alloca ptr, align 8
  %7 = alloca [3 x i64], align 16
  %8 = alloca i64, align 8
  %9 = alloca ptr, align 8
  %10 = alloca i32, align 4
  %11 = alloca ptr, align 8
  %12 = alloca i32, align 4
  store ptr %0, ptr %4, align 8
  store ptr %1, ptr %5, align 8
  store ptr %2, ptr %6, align 8
  %13 = load ptr, ptr %4, align 8
  call void @llvm.memcpy.p0.p0.i64(ptr align 16 %7, ptr align 16 @__const._ZN7nanogui6Shader11set_uniformINS_5ArrayIfLm2EEEEEvRKNSt3__112basic_stringIcNS4_11char_traitsIcEENS4_9allocatorIcEEEERKT_.shape, i64 24, i1 false)
  store i64 -1, ptr %8, align 8
  store i32 0, ptr %10, align 4
  %14 = load ptr, ptr %6, align 8
  %15 = getelementptr inbounds %"struct.nanogui::Array.35", ptr %14, i32 0, i32 0
  %16 = getelementptr inbounds [2 x float], ptr %15, i64 0, i64 0
  store ptr %16, ptr %9, align 8
  store i64 1, ptr %8, align 8
  %17 = getelementptr inbounds [3 x i64], ptr %7, i64 0, i64 0
  store i64 2, ptr %17, align 16
  %18 = call noundef i32 @_ZN7nanogui8get_typeIfEENS_12VariableTypeEv()
  store i32 %18, ptr %10, align 4
  %19 = load i64, ptr %8, align 8
  %20 = icmp eq i64 %19, -1
  br i1 %20, label %21, label %28

21:                                               ; preds = %3
  %22 = call ptr @__cxa_allocate_exception(i64 16) #14
  invoke void @_ZNSt13runtime_errorC1EPKc(ptr noundef nonnull align 8 dereferenceable(16) %22, ptr noundef @.str.104)
          to label %23 unwind label %24

23:                                               ; preds = %21
  call void @__cxa_throw(ptr %22, ptr @_ZTISt13runtime_error, ptr @_ZNSt13runtime_errorD1Ev) #22
  unreachable

24:                                               ; preds = %21
  %25 = landingpad { ptr, i32 }
          cleanup
  %26 = extractvalue { ptr, i32 } %25, 0
  store ptr %26, ptr %11, align 8
  %27 = extractvalue { ptr, i32 } %25, 1
  store i32 %27, ptr %12, align 4
  call void @__cxa_free_exception(ptr %22) #14
  br label %34

28:                                               ; preds = %3
  %29 = load ptr, ptr %5, align 8
  %30 = load i32, ptr %10, align 4
  %31 = load i64, ptr %8, align 8
  %32 = getelementptr inbounds [3 x i64], ptr %7, i64 0, i64 0
  %33 = load ptr, ptr %9, align 8
  call void @_ZN7nanogui6Shader10set_bufferERKNSt3__112basic_stringIcNS1_11char_traitsIcEENS1_9allocatorIcEEEENS_12VariableTypeEmPKmPKv(ptr noundef nonnull align 8 dereferenceable(101) %13, ptr noundef nonnull align 8 dereferenceable(24) %29, i32 noundef %30, i64 noundef %31, ptr noundef %32, ptr noundef %33)
  ret void

34:                                               ; preds = %24
  %35 = load ptr, ptr %11, align 8
  %36 = load i32, ptr %12, align 4
  %37 = insertvalue { ptr, i32 } poison, ptr %35, 0
  %38 = insertvalue { ptr, i32 } %37, i32 %36, 1
  resume { ptr, i32 } %38
}

; Function Attrs: mustprogress uwtable
define linkonce_odr dso_local void @_ZNSt3__112basic_stringIcNS_11char_traitsIcEENS_9allocatorIcEEEC2B8ne190000ILi0EEEPKc(ptr noundef nonnull align 8 dereferenceable(24) %0, ptr noundef %1) unnamed_addr #4 comdat align 2 {
  %3 = alloca ptr, align 8
  %4 = alloca ptr, align 8
  %5 = alloca %"struct.std::__1::__default_init_tag", align 1
  %6 = alloca %"struct.std::__1::__default_init_tag", align 1
  store ptr %0, ptr %3, align 8
  store ptr %1, ptr %4, align 8
  %7 = load ptr, ptr %3, align 8
  %8 = getelementptr inbounds %"class.std::__1::basic_string", ptr %7, i32 0, i32 0
  call void @_ZNSt3__117__compressed_pairINS_12basic_stringIcNS_11char_traitsIcEENS_9allocatorIcEEE5__repES5_EC2B8ne190000INS_18__default_init_tagESA_EEOT_OT0_(ptr noundef nonnull align 8 dereferenceable(24) %8, ptr noundef nonnull align 1 dereferenceable(1) %5, ptr noundef nonnull align 1 dereferenceable(1) %6)
  %9 = load ptr, ptr %4, align 8
  %10 = load ptr, ptr %4, align 8
  %11 = call noundef i64 @_ZNSt3__111char_traitsIcE6lengthB8ne190000EPKc(ptr noundef %10) #14
  call void @_ZNSt3__112basic_stringIcNS_11char_traitsIcEENS_9allocatorIcEEE6__initEPKcm(ptr noundef nonnull align 8 dereferenceable(24) %7, ptr noundef %9, i64 noundef %11)
  ret void
}

; Function Attrs: mustprogress nounwind uwtable
define linkonce_odr dso_local noundef ptr @_ZN7nanogui3refINS_6ShaderEEptEv(ptr noundef nonnull align 8 dereferenceable(8) %0) #1 comdat align 2 {
  %2 = alloca ptr, align 8
  store ptr %0, ptr %2, align 8
  %3 = load ptr, ptr %2, align 8
  %4 = getelementptr inbounds %"class.nanogui::ref", ptr %3, i32 0, i32 0
  %5 = load ptr, ptr %4, align 8
  ret ptr %5
}

; Function Attrs: mustprogress uwtable
define dso_local void @_ZN3tev10UberShader20bindCheckerboardDataERKN7nanogui5ArrayIfLm2EEES5_(ptr noundef nonnull align 8 dereferenceable(40) %0, ptr noundef nonnull align 4 dereferenceable(8) %1, ptr noundef nonnull align 4 dereferenceable(8) %2) #4 align 2 personality ptr @__gxx_personality_v0 {
  %4 = alloca ptr, align 8
  %5 = alloca ptr, align 8
  %6 = alloca ptr, align 8
  %7 = alloca %"class.std::__1::basic_string", align 8
  %8 = alloca ptr, align 8
  %9 = alloca i32, align 4
  %10 = alloca %"class.std::__1::basic_string", align 8
  %11 = alloca %"class.std::__1::basic_string", align 8
  store ptr %0, ptr %4, align 8
  store ptr %1, ptr %5, align 8
  store ptr %2, ptr %6, align 8
  %12 = load ptr, ptr %4, align 8
  %13 = getelementptr inbounds %"class.tev::UberShader", ptr %12, i32 0, i32 1
  %14 = call noundef ptr @_ZN7nanogui3refINS_6ShaderEEptEv(ptr noundef nonnull align 8 dereferenceable(8) %13)
  call void @_ZNSt3__112basic_stringIcNS_11char_traitsIcEENS_9allocatorIcEEEC2B8ne190000ILi0EEEPKc(ptr noundef nonnull align 8 dereferenceable(24) %7, ptr noundef @.str.14)
  %15 = load ptr, ptr %5, align 8
  invoke void @_ZN7nanogui6Shader11set_uniformINS_5ArrayIfLm2EEEEEvRKNSt3__112basic_stringIcNS4_11char_traitsIcEENS4_9allocatorIcEEEERKT_(ptr noundef nonnull align 8 dereferenceable(101) %14, ptr noundef nonnull align 8 dereferenceable(24) %7, ptr noundef nonnull align 4 dereferenceable(8) %15)
          to label %16 unwind label %25

16:                                               ; preds = %3
  call void @_ZNSt3__112basic_stringIcNS_11char_traitsIcEENS_9allocatorIcEEED1Ev(ptr noundef nonnull align 8 dereferenceable(24) %7) #14
  %17 = getelementptr inbounds %"class.tev::UberShader", ptr %12, i32 0, i32 1
  %18 = call noundef ptr @_ZN7nanogui3refINS_6ShaderEEptEv(ptr noundef nonnull align 8 dereferenceable(8) %17)
  call void @_ZNSt3__112basic_stringIcNS_11char_traitsIcEENS_9allocatorIcEEEC2B8ne190000ILi0EEEPKc(ptr noundef nonnull align 8 dereferenceable(24) %10, ptr noundef @.str.15)
  %19 = load ptr, ptr %6, align 8
  invoke void @_ZN7nanogui6Shader11set_uniformINS_5ArrayIfLm2EEEEEvRKNSt3__112basic_stringIcNS4_11char_traitsIcEENS4_9allocatorIcEEEERKT_(ptr noundef nonnull align 8 dereferenceable(101) %18, ptr noundef nonnull align 8 dereferenceable(24) %10, ptr noundef nonnull align 4 dereferenceable(8) %19)
          to label %20 unwind label %29

20:                                               ; preds = %16
  call void @_ZNSt3__112basic_stringIcNS_11char_traitsIcEENS_9allocatorIcEEED1Ev(ptr noundef nonnull align 8 dereferenceable(24) %10) #14
  %21 = getelementptr inbounds %"class.tev::UberShader", ptr %12, i32 0, i32 1
  %22 = call noundef ptr @_ZN7nanogui3refINS_6ShaderEEptEv(ptr noundef nonnull align 8 dereferenceable(8) %21)
  call void @_ZNSt3__112basic_stringIcNS_11char_traitsIcEENS_9allocatorIcEEEC2B8ne190000ILi0EEEPKc(ptr noundef nonnull align 8 dereferenceable(24) %11, ptr noundef @.str.16)
  %23 = getelementptr inbounds %"class.tev::UberShader", ptr %12, i32 0, i32 3
  invoke void @_ZN7nanogui6Shader11set_uniformINS_5ColorEEEvRKNSt3__112basic_stringIcNS3_11char_traitsIcEENS3_9allocatorIcEEEERKT_(ptr noundef nonnull align 8 dereferenceable(101) %22, ptr noundef nonnull align 8 dereferenceable(24) %11, ptr noundef nonnull align 4 dereferenceable(16) %23)
          to label %24 unwind label %33

24:                                               ; preds = %20
  call void @_ZNSt3__112basic_stringIcNS_11char_traitsIcEENS_9allocatorIcEEED1Ev(ptr noundef nonnull align 8 dereferenceable(24) %11) #14
  ret void

25:                                               ; preds = %3
  %26 = landingpad { ptr, i32 }
          cleanup
  %27 = extractvalue { ptr, i32 } %26, 0
  store ptr %27, ptr %8, align 8
  %28 = extractvalue { ptr, i32 } %26, 1
  store i32 %28, ptr %9, align 4
  call void @_ZNSt3__112basic_stringIcNS_11char_traitsIcEENS_9allocatorIcEEED1Ev(ptr noundef nonnull align 8 dereferenceable(24) %7) #14
  br label %37

29:                                               ; preds = %16
  %30 = landingpad { ptr, i32 }
          cleanup
  %31 = extractvalue { ptr, i32 } %30, 0
  store ptr %31, ptr %8, align 8
  %32 = extractvalue { ptr, i32 } %30, 1
  store i32 %32, ptr %9, align 4
  call void @_ZNSt3__112basic_stringIcNS_11char_traitsIcEENS_9allocatorIcEEED1Ev(ptr noundef nonnull align 8 dereferenceable(24) %10) #14
  br label %37

33:                                               ; preds = %20
  %34 = landingpad { ptr, i32 }
          cleanup
  %35 = extractvalue { ptr, i32 } %34, 0
  store ptr %35, ptr %8, align 8
  %36 = extractvalue { ptr, i32 } %34, 1
  store i32 %36, ptr %9, align 4
  call void @_ZNSt3__112basic_stringIcNS_11char_traitsIcEENS_9allocatorIcEEED1Ev(ptr noundef nonnull align 8 dereferenceable(24) %11) #14
  br label %37

37:                                               ; preds = %33, %29, %25
  %38 = load ptr, ptr %8, align 8
  %39 = load i32, ptr %9, align 4
  %40 = insertvalue { ptr, i32 } poison, ptr %38, 0
  %41 = insertvalue { ptr, i32 } %40, i32 %39, 1
  resume { ptr, i32 } %41
}