; Function Attrs: mustprogress uwtable
define dso_local void @_ZN3tev10UberShader20bindCheckerboardDataERKN7nanogui5ArrayIfLm2EEES5_(ptr noundef nonnull align 8 dereferenceable(40) %0, ptr noundef nonnull align 4 dereferenceable(8) %1, ptr noundef nonnull align 4 dereferenceable(8) %2) local_unnamed_addr #7 align 2 personality ptr @__gxx_personality_v0 {
  %4 = alloca [3 x i64], align 16
  %5 = alloca [3 x i64], align 16
  %6 = alloca [3 x i64], align 16
  %7 = alloca %"class.std::__1::basic_string", align 8
  %8 = alloca %"class.std::__1::basic_string", align 8
  %9 = alloca %"class.std::__1::basic_string", align 8
  %10 = getelementptr inbounds i8, ptr %0, i64 8
  %11 = load ptr, ptr %10, align 8
  call void @_ZNSt3__112basic_stringIcNS_11char_traitsIcEENS_9allocatorIcEEE6__initEPKcm(ptr noundef nonnull align 8 dereferenceable(24) %7, ptr noundef nonnull @.str.14, i64 noundef 9)
  call void @llvm.lifetime.start.p0(i64 24, ptr nonnull %6)
  call void @llvm.memcpy.p0.p0.i64(ptr noundef nonnull align 16 dereferenceable(24) %6, ptr noundef nonnull align 16 dereferenceable(24) @__const._ZN7nanogui6Shader11set_uniformIiEEvRKNSt3__112basic_stringIcNS2_11char_traitsIcEENS2_9allocatorIcEEEERKT_.shape, i64 24, i1 false)
  store i64 2, ptr %6, align 16
  invoke void @_ZN7nanogui6Shader10set_bufferERKNSt3__112basic_stringIcNS1_11char_traitsIcEENS1_9allocatorIcEEEENS_12VariableTypeEmPKmPKv(ptr noundef nonnull align 8 dereferenceable(101) %11, ptr noundef nonnull align 8 dereferenceable(24) %7, i32 noundef 10, i64 noundef 1, ptr noundef nonnull %6, ptr noundef nonnull %1)
          to label %12 unwind label %18

12:                                               ; preds = %3
  call void @llvm.lifetime.end.p0(i64 24, ptr nonnull %6)
  call void @_ZNSt3__112basic_stringIcNS_11char_traitsIcEENS_9allocatorIcEEED1Ev(ptr noundef nonnull align 8 dereferenceable(24) %7) #22
  %13 = load ptr, ptr %10, align 8
  call void @_ZNSt3__112basic_stringIcNS_11char_traitsIcEENS_9allocatorIcEEE6__initEPKcm(ptr noundef nonnull align 8 dereferenceable(24) %8, ptr noundef nonnull @.str.15, i64 noundef 11)
  call void @llvm.lifetime.start.p0(i64 24, ptr nonnull %5)
  call void @llvm.memcpy.p0.p0.i64(ptr noundef nonnull align 16 dereferenceable(24) %5, ptr noundef nonnull align 16 dereferenceable(24) @__const._ZN7nanogui6Shader11set_uniformIiEEvRKNSt3__112basic_stringIcNS2_11char_traitsIcEENS2_9allocatorIcEEEERKT_.shape, i64 24, i1 false)
  store i64 2, ptr %5, align 16
  invoke void @_ZN7nanogui6Shader10set_bufferERKNSt3__112basic_stringIcNS1_11char_traitsIcEENS1_9allocatorIcEEEENS_12VariableTypeEmPKmPKv(ptr noundef nonnull align 8 dereferenceable(101) %13, ptr noundef nonnull align 8 dereferenceable(24) %8, i32 noundef 10, i64 noundef 1, ptr noundef nonnull %5, ptr noundef nonnull %2)
          to label %14 unwind label %20

14:                                               ; preds = %12
  call void @llvm.lifetime.end.p0(i64 24, ptr nonnull %5)
  call void @_ZNSt3__112basic_stringIcNS_11char_traitsIcEENS_9allocatorIcEEED1Ev(ptr noundef nonnull align 8 dereferenceable(24) %8) #22
  %15 = load ptr, ptr %10, align 8
  call void @_ZNSt3__112basic_stringIcNS_11char_traitsIcEENS_9allocatorIcEEE6__initEPKcm(ptr noundef nonnull align 8 dereferenceable(24) %9, ptr noundef nonnull @.str.16, i64 noundef 7)
  %16 = getelementptr inbounds i8, ptr %0, i64 24
  call void @llvm.lifetime.start.p0(i64 24, ptr nonnull %4)
  call void @llvm.memcpy.p0.p0.i64(ptr noundef nonnull align 16 dereferenceable(24) %4, ptr noundef nonnull align 16 dereferenceable(24) @__const._ZN7nanogui6Shader11set_uniformIiEEvRKNSt3__112basic_stringIcNS2_11char_traitsIcEENS2_9allocatorIcEEEERKT_.shape, i64 24, i1 false)
  store i64 4, ptr %4, align 16
  invoke void @_ZN7nanogui6Shader10set_bufferERKNSt3__112basic_stringIcNS1_11char_traitsIcEENS1_9allocatorIcEEEENS_12VariableTypeEmPKmPKv(ptr noundef nonnull align 8 dereferenceable(101) %15, ptr noundef nonnull align 8 dereferenceable(24) %9, i32 noundef 10, i64 noundef 1, ptr noundef nonnull %4, ptr noundef nonnull %16)
          to label %17 unwind label %22

17:                                               ; preds = %14
  call void @llvm.lifetime.end.p0(i64 24, ptr nonnull %4)
  call void @_ZNSt3__112basic_stringIcNS_11char_traitsIcEENS_9allocatorIcEEED1Ev(ptr noundef nonnull align 8 dereferenceable(24) %9) #22
  ret void

18:                                               ; preds = %3
  %19 = landingpad { ptr, i32 }
          cleanup
  br label %24

20:                                               ; preds = %12
  %21 = landingpad { ptr, i32 }
          cleanup
  br label %24

22:                                               ; preds = %14
  %23 = landingpad { ptr, i32 }
          cleanup
  br label %24

24:                                               ; preds = %22, %20, %18
  %.sink = phi ptr [ %9, %22 ], [ %8, %20 ], [ %7, %18 ]
  %.pn = phi { ptr, i32 } [ %23, %22 ], [ %21, %20 ], [ %19, %18 ]
  call void @_ZNSt3__112basic_stringIcNS_11char_traitsIcEENS_9allocatorIcEEED1Ev(ptr noundef nonnull align 8 dereferenceable(24) %.sink) #22
  resume { ptr, i32 } %.pn
}